target datalayout = "e-m:e-p270:32:32-p271:32:32-p272:64:64-i64:64-i128:128-f80:128-n8:16:32:64-S128"
target triple = "x86_64-pc-linux-gnu"

%struct.WebPPicture = type { i32, i32, i32, i32, ptr, ptr, ptr, i32, i32, ptr, i32, [2 x i32], ptr, i32, [3 x i32], ptr, ptr, i32, ptr, ptr, i32, ptr, ptr, [3 x i32], ptr, ptr, [8 x i32], ptr, ptr, [2 x ptr] }

; Function Attrs: mustprogress uwtable
define internal noundef i32 @_ZN11OpenImageIO6v3_1_08webp_pvtL15WebpImageWriterEPKhmPK11WebPPicture(ptr noundef %0, i64 noundef %1, ptr noundef %2) #6 {
  %4 = alloca ptr, align 8
  %5 = alloca i64, align 8
  %6 = alloca ptr, align 8
  %7 = alloca ptr, align 8
  store ptr %0, ptr %4, align 8, !tbaa !17
  store i64 %1, ptr %5, align 8, !tbaa !102
  store ptr %2, ptr %6, align 8, !tbaa !92
  call void @llvm.lifetime.start.p0(i64 8, ptr %7) #3
  %8 = load ptr, ptr %6, align 8, !tbaa !92
  %9 = getelementptr inbounds nuw %struct.WebPPicture, ptr %8, i32 0, i32 16
  %10 = load ptr, ptr %9, align 8, !tbaa !103
  store ptr %10, ptr %7, align 8, !tbaa !104
  %11 = load ptr, ptr %7, align 8, !tbaa !104
  %12 = load ptr, ptr %4, align 8, !tbaa !17
  %13 = load i64, ptr %5, align 8, !tbaa !102
  %14 = load ptr, ptr %11, align 8, !tbaa !106
  %15 = getelementptr inbounds ptr, ptr %14, i64 8
  %16 = load ptr, ptr %15, align 8
  %17 = call noundef i64 %16(ptr noundef nonnull align 8 dereferenceable(88) %11, ptr noundef %12, i64 noundef %13)
  %18 = load i64, ptr %5, align 8, !tbaa !102
  %19 = icmp eq i64 %17, %18
  %20 = zext i1 %19 to i32
  call void @llvm.lifetime.end.p0(i64 8, ptr %7) #3
  ret i32 %20
}