; Function Attrs: mustprogress uwtable
define internal noundef range(i32 0, 2) i32 @_ZN11OpenImageIO6v3_1_08webp_pvtL15WebpImageWriterEPKhmPK11WebPPicture(ptr noundef %0, i64 noundef %1, ptr noundef readonly captures(none) %2) #6 {
  %4 = getelementptr inbounds nuw i8, ptr %2, i64 104
  %5 = load ptr, ptr %4, align 8, !tbaa !88
  %6 = load ptr, ptr %5, align 8, !tbaa !89
  %7 = getelementptr inbounds nuw i8, ptr %6, i64 64
  %8 = load ptr, ptr %7, align 8
  %9 = tail call noundef i64 %8(ptr noundef nonnull align 8 dereferenceable(88) %5, ptr noundef %0, i64 noundef %1)
  %10 = icmp eq i64 %9, %1
  %11 = zext i1 %10 to i32
  ret i32 %11
}